target datalayout = "e-m:e-p270:32:32-p271:32:32-p272:64:64-i64:64-i128:128-f80:128-n8:16:32:64-S128"
target triple = "x86_64-pc-linux-gnu"

@_ZN4Type3TOPE = external global ptr, align 8
@_ZN4Type6BOTTOME = external global ptr, align 8
@_ZN8TypeLong4LONGE = external global ptr, align 8

; Function Attrs: mustprogress nounwind uwtable
define hidden noundef ptr @_Z10MulHiValuePK4TypeS1_S1_(ptr noundef %0, ptr noundef %1, ptr noundef %2) #1 {
  %4 = alloca ptr, align 8
  %5 = alloca ptr, align 8
  %6 = alloca ptr, align 8
  %7 = alloca ptr, align 8
  store ptr %0, ptr %5, align 8
  store ptr %1, ptr %6, align 8
  store ptr %2, ptr %7, align 8
  %8 = load ptr, ptr %5, align 8
  %9 = load ptr, ptr @_ZN4Type3TOPE, align 8
  %10 = icmp eq ptr %8, %9
  br i1 %10, label %11, label %13

11:                                               ; preds = %3
  %12 = load ptr, ptr @_ZN4Type3TOPE, align 8
  store ptr %12, ptr %4, align 8
  br label %39

13:                                               ; preds = %3
  %14 = load ptr, ptr %6, align 8
  %15 = load ptr, ptr @_ZN4Type3TOPE, align 8
  %16 = icmp eq ptr %14, %15
  br i1 %16, label %17, label %19

17:                                               ; preds = %13
  %18 = load ptr, ptr @_ZN4Type3TOPE, align 8
  store ptr %18, ptr %4, align 8
  br label %39

19:                                               ; preds = %13
  %20 = load ptr, ptr %5, align 8
  %21 = load ptr, ptr %7, align 8
  %22 = icmp eq ptr %20, %21
  br i1 %22, label %35, label %23

23:                                               ; preds = %19
  %24 = load ptr, ptr %6, align 8
  %25 = load ptr, ptr %7, align 8
  %26 = icmp eq ptr %24, %25
  br i1 %26, label %35, label %27

27:                                               ; preds = %23
  %28 = load ptr, ptr %5, align 8
  %29 = load ptr, ptr @_ZN4Type6BOTTOME, align 8
  %30 = icmp eq ptr %28, %29
  br i1 %30, label %35, label %31

31:                                               ; preds = %27
  %32 = load ptr, ptr %6, align 8
  %33 = load ptr, ptr @_ZN4Type6BOTTOME, align 8
  %34 = icmp eq ptr %32, %33
  br i1 %34, label %35, label %37

35:                                               ; preds = %31, %27, %23, %19
  %36 = load ptr, ptr %7, align 8
  store ptr %36, ptr %4, align 8
  br label %39

37:                                               ; preds = %31
  %38 = load ptr, ptr @_ZN8TypeLong4LONGE, align 8
  store ptr %38, ptr %4, align 8
  br label %39

39:                                               ; preds = %37, %35, %17, %11
  %40 = load ptr, ptr %4, align 8
  ret ptr %40
}