; Function Attrs: mustprogress nofree norecurse nosync nounwind willreturn memory(read, argmem: none, inaccessiblemem: none) uwtable
define hidden noundef ptr @_Z10MulHiValuePK4TypeS1_S1_(ptr noundef readnone %0, ptr noundef readnone %1, ptr noundef readnone %2) local_unnamed_addr #3 {
  %4 = load ptr, ptr @_ZN4Type3TOPE, align 8
  %5 = icmp eq ptr %4, %0
  %6 = icmp eq ptr %4, %1
  %or.cond16 = or i1 %5, %6
  br i1 %or.cond16, label %15, label %7

7:                                                ; preds = %3
  %8 = icmp eq ptr %0, %2
  %9 = icmp eq ptr %1, %2
  %or.cond = or i1 %8, %9
  br i1 %or.cond, label %15, label %10

10:                                               ; preds = %7
  %11 = load ptr, ptr @_ZN4Type6BOTTOME, align 8
  %12 = icmp eq ptr %11, %0
  %13 = icmp eq ptr %11, %1
  %or.cond15 = or i1 %12, %13
  %14 = load ptr, ptr @_ZN8TypeLong4LONGE, align 8
  %spec.select = select i1 %or.cond15, ptr %2, ptr %14
  br label %15

15:                                               ; preds = %10, %7, %3
  %.0 = phi ptr [ %4, %3 ], [ %2, %7 ], [ %spec.select, %10 ]
  ret ptr %.0
}